; Function Attrs: mustprogress nofree nounwind
define dso_local void @_ZN4mold10MappedFile9reopen_fdERKNSt7__cxx1112basic_stringIcSt11char_traitsIcESaIcEEE(ptr noundef nonnull align 8 captures(none) dereferenceable(80) %0, ptr noundef nonnull readonly align 8 captures(none) dereferenceable(32) %1) local_unnamed_addr #11 align 2 {
  %3 = getelementptr inbounds nuw i8, ptr %0, i64 76
  %4 = load i32, ptr %3, align 4, !tbaa !30
  %5 = icmp eq i32 %4, -1
  br i1 %5, label %6, label %9

6:                                                ; preds = %2
  %7 = load ptr, ptr %1, align 8, !tbaa !11
  %8 = tail call i32 (ptr, i32, ...) @open(ptr noundef %7, i32 noundef 0) #21
  store i32 %8, ptr %3, align 4, !tbaa !30
  br label %9

9:                                                ; preds = %6, %2
  ret void
}